; Function Attrs: mustprogress uwtable
define hidden void @_ZN5ceres8internal31BlockRandomAccessDiagonalMatrix7SetZeroEv(ptr noundef nonnull readonly align 8 captures(none) dereferenceable(40) %0) unnamed_addr #0 align 2 {
  %2 = getelementptr inbounds nuw i8, ptr %0, i64 8
  %3 = load ptr, ptr %2, align 8, !tbaa !6
  %4 = getelementptr inbounds nuw i8, ptr %0, i64 16
  %5 = load i32, ptr %4, align 8, !tbaa !27
  %6 = getelementptr inbounds nuw i8, ptr %0, i64 24
  %7 = load ptr, ptr %6, align 8, !tbaa !28
  %8 = getelementptr inbounds nuw i8, ptr %7, i64 64
  %9 = load ptr, ptr %8, align 8, !tbaa !29
  %10 = getelementptr inbounds nuw i8, ptr %7, i64 16
  %11 = getelementptr inbounds nuw i8, ptr %7, i64 8
  %12 = load i32, ptr %11, align 8, !tbaa !49
  %13 = sext i32 %12 to i64
  %14 = load ptr, ptr %10, align 8, !tbaa !65
  %15 = getelementptr inbounds nuw i32, ptr %14, i64 %13
  %16 = load i32, ptr %15, align 4, !tbaa !48
  tail call void @_ZN5ceres8internal15ParallelSetZeroEPNS0_11ContextImplEiPdi(ptr noundef %3, i32 noundef %5, ptr noundef %9, i32 noundef %16)
  ret void
}